(lp0
ccopy_reg
_reconstructor
p1
(cfecha_hora
DateTime
p2
c__builtin__
object
p3
Ntp4
Rp5
(dp6
Vd
p7
I1
sVm
p8
I1
sVy
p9
I1970
sVhh
p10
I0
sVmm
p11
I0
sVss
p12
I0
sbag1
(g2
g3
Ntp13
Rp14
(dp15
g7
I1
sg8
I1
sg9
I2000
sg10
I0
sg11
I0
sg12
I0
sbag1
(g2
g3
Ntp16
Rp17
(dp18
g7
I1
sg8
I5
sg9
I2023
sg10
I0
sg11
I0
sg12
I0
sba.